target datalayout = "e-m:e-p270:32:32-p271:32:32-p272:64:64-i64:64-i128:128-f80:128-n8:16:32:64-S128"
target triple = "x86_64-pc-linux-gnu"

%struct.child_prov_globals = type { ptr, ptr, ptr, ptr, ptr, ptr, ptr, ptr, ptr, ptr, ptr }

; Function Attrs: nounwind uwtable
define internal i32 @provider_create_child_cb(ptr noundef %0, ptr noundef %1) #0 {
  %3 = alloca i32, align 4
  %4 = alloca ptr, align 8
  %5 = alloca ptr, align 8
  %6 = alloca ptr, align 8
  %7 = alloca ptr, align 8
  %8 = alloca ptr, align 8
  %9 = alloca ptr, align 8
  %10 = alloca i32, align 4
  %11 = alloca i32, align 4
  store ptr %0, ptr %4, align 8, !tbaa !14
  store ptr %1, ptr %5, align 8, !tbaa !8
  call void @llvm.lifetime.start.p0(i64 8, ptr %6) #4
  %12 = load ptr, ptr %5, align 8, !tbaa !8
  store ptr %12, ptr %6, align 8, !tbaa !3
  call void @llvm.lifetime.start.p0(i64 8, ptr %7) #4
  call void @llvm.lifetime.start.p0(i64 8, ptr %8) #4
  call void @llvm.lifetime.start.p0(i64 8, ptr %9) #4
  call void @llvm.lifetime.start.p0(i64 4, ptr %10) #4
  store i32 0, ptr %10, align 4, !tbaa !32
  %13 = load ptr, ptr %6, align 8, !tbaa !3
  %14 = call ptr @ossl_lib_ctx_get_data(ptr noundef %13, i32 noundef 18)
  store ptr %14, ptr %7, align 8, !tbaa !9
  %15 = load ptr, ptr %7, align 8, !tbaa !9
  %16 = icmp eq ptr %15, null
  br i1 %16, label %17, label %18

17:                                               ; preds = %2
  store i32 0, ptr %3, align 4
  store i32 1, ptr %11, align 4
  br label %78

18:                                               ; preds = %2
  %19 = load ptr, ptr %7, align 8, !tbaa !9
  %20 = getelementptr inbounds nuw %struct.child_prov_globals, ptr %19, i32 0, i32 2
  %21 = load ptr, ptr %20, align 8, !tbaa !11
  %22 = call i32 @CRYPTO_THREAD_write_lock(ptr noundef %21)
  %23 = icmp ne i32 %22, 0
  br i1 %23, label %25, label %24

24:                                               ; preds = %18
  store i32 0, ptr %3, align 4
  store i32 1, ptr %11, align 4
  br label %78

25:                                               ; preds = %18
  %26 = load ptr, ptr %7, align 8, !tbaa !9
  %27 = getelementptr inbounds nuw %struct.child_prov_globals, ptr %26, i32 0, i32 6
  %28 = load ptr, ptr %27, align 8, !tbaa !24
  %29 = load ptr, ptr %4, align 8, !tbaa !14
  %30 = call ptr %28(ptr noundef %29)
  store ptr %30, ptr %8, align 8, !tbaa !33
  %31 = load ptr, ptr %4, align 8, !tbaa !14
  %32 = load ptr, ptr %7, align 8, !tbaa !9
  %33 = getelementptr inbounds nuw %struct.child_prov_globals, ptr %32, i32 0, i32 1
  store ptr %31, ptr %33, align 8, !tbaa !35
  %34 = load ptr, ptr %6, align 8, !tbaa !3
  %35 = load ptr, ptr %8, align 8, !tbaa !33
  %36 = call ptr @ossl_provider_find(ptr noundef %34, ptr noundef %35, i32 noundef 1)
  store ptr %36, ptr %9, align 8, !tbaa !36
  %37 = icmp ne ptr %36, null
  br i1 %37, label %38, label %45

38:                                               ; preds = %25
  %39 = load ptr, ptr %9, align 8, !tbaa !36
  call void @ossl_provider_free(ptr noundef %39)
  %40 = load ptr, ptr %9, align 8, !tbaa !36
  %41 = call i32 @ossl_provider_activate(ptr noundef %40, i32 noundef 0, i32 noundef 1)
  %42 = icmp ne i32 %41, 0
  br i1 %42, label %44, label %43

43:                                               ; preds = %38
  br label %72

44:                                               ; preds = %38
  br label %71

45:                                               ; preds = %25
  %46 = load ptr, ptr %6, align 8, !tbaa !3
  %47 = load ptr, ptr %8, align 8, !tbaa !33
  %48 = call ptr @ossl_provider_new(ptr noundef %46, ptr noundef %47, ptr noundef @ossl_child_provider_init, ptr noundef null, i32 noundef 1)
  store ptr %48, ptr %9, align 8, !tbaa !36
  %49 = icmp eq ptr %48, null
  br i1 %49, label %50, label %51

50:                                               ; preds = %45
  br label %72

51:                                               ; preds = %45
  %52 = load ptr, ptr %9, align 8, !tbaa !36
  %53 = call i32 @ossl_provider_activate(ptr noundef %52, i32 noundef 0, i32 noundef 0)
  %54 = icmp ne i32 %53, 0
  br i1 %54, label %57, label %55

55:                                               ; preds = %51
  %56 = load ptr, ptr %9, align 8, !tbaa !36
  call void @ossl_provider_free(ptr noundef %56)
  br label %72

57:                                               ; preds = %51
  %58 = load ptr, ptr %9, align 8, !tbaa !36
  %59 = load ptr, ptr %4, align 8, !tbaa !14
  %60 = call i32 @ossl_provider_set_child(ptr noundef %58, ptr noundef %59)
  %61 = icmp ne i32 %60, 0
  br i1 %61, label %62, label %66

62:                                               ; preds = %57
  %63 = load ptr, ptr %9, align 8, !tbaa !36
  %64 = call i32 @ossl_provider_add_to_store(ptr noundef %63, ptr noundef null, i32 noundef 0)
  %65 = icmp ne i32 %64, 0
  br i1 %65, label %70, label %66

66:                                               ; preds = %62, %57
  %67 = load ptr, ptr %9, align 8, !tbaa !36
  %68 = call i32 @ossl_provider_deactivate(ptr noundef %67, i32 noundef 0)
  %69 = load ptr, ptr %9, align 8, !tbaa !36
  call void @ossl_provider_free(ptr noundef %69)
  br label %72

70:                                               ; preds = %62
  br label %71

71:                                               ; preds = %70, %44
  store i32 1, ptr %10, align 4, !tbaa !32
  br label %72

72:                                               ; preds = %71, %66, %55, %50, %43
  %73 = load ptr, ptr %7, align 8, !tbaa !9
  %74 = getelementptr inbounds nuw %struct.child_prov_globals, ptr %73, i32 0, i32 2
  %75 = load ptr, ptr %74, align 8, !tbaa !11
  %76 = call i32 @CRYPTO_THREAD_unlock(ptr noundef %75)
  %77 = load i32, ptr %10, align 4, !tbaa !32
  store i32 %77, ptr %3, align 4
  store i32 1, ptr %11, align 4
  br label %78

78:                                               ; preds = %72, %24, %17
  call void @llvm.lifetime.end.p0(i64 4, ptr %10) #4
  call void @llvm.lifetime.end.p0(i64 8, ptr %9) #4
  call void @llvm.lifetime.end.p0(i64 8, ptr %8) #4
  call void @llvm.lifetime.end.p0(i64 8, ptr %7) #4
  call void @llvm.lifetime.end.p0(i64 8, ptr %6) #4
  %79 = load i32, ptr %3, align 4
  ret i32 %79
}