; Function Attrs: nounwind uwtable
define internal range(i32 0, 2) i32 @provider_create_child_cb(ptr noundef %0, ptr noundef %1) #0 {
  %3 = tail call ptr @ossl_lib_ctx_get_data(ptr noundef %1, i32 noundef 18) #2
  %4 = icmp eq ptr %3, null
  br i1 %4, label %33, label %5

5:                                                ; preds = %2
  %6 = getelementptr inbounds nuw i8, ptr %3, i64 16
  %7 = load ptr, ptr %6, align 8, !tbaa !3
  %8 = tail call i32 @CRYPTO_THREAD_write_lock(ptr noundef %7) #2
  %.not = icmp eq i32 %8, 0
  br i1 %.not, label %33, label %9

9:                                                ; preds = %5
  %10 = getelementptr inbounds nuw i8, ptr %3, i64 48
  %11 = load ptr, ptr %10, align 8, !tbaa !17
  %12 = tail call ptr %11(ptr noundef %0) #2
  %13 = getelementptr inbounds nuw i8, ptr %3, i64 8
  store ptr %0, ptr %13, align 8, !tbaa !24
  %14 = tail call ptr @ossl_provider_find(ptr noundef %1, ptr noundef %12, i32 noundef 1) #2
  %.not27 = icmp eq ptr %14, null
  br i1 %.not27, label %17, label %15

15:                                               ; preds = %9
  tail call void @ossl_provider_free(ptr noundef nonnull %14) #2
  %16 = tail call i32 @ossl_provider_activate(ptr noundef nonnull %14, i32 noundef 0, i32 noundef 1) #2
  %.not31 = icmp eq i32 %16, 0
  br i1 %.not31, label %30, label %29

17:                                               ; preds = %9
  %18 = tail call ptr @ossl_provider_new(ptr noundef %1, ptr noundef %12, ptr noundef nonnull @ossl_child_provider_init, ptr noundef null, i32 noundef 1) #2
  %19 = icmp eq ptr %18, null
  br i1 %19, label %30, label %20

20:                                               ; preds = %17
  %21 = tail call i32 @ossl_provider_activate(ptr noundef nonnull %18, i32 noundef 0, i32 noundef 0) #2
  %.not28 = icmp eq i32 %21, 0
  br i1 %.not28, label %22, label %23

22:                                               ; preds = %20
  tail call void @ossl_provider_free(ptr noundef nonnull %18) #2
  br label %30

23:                                               ; preds = %20
  %24 = tail call i32 @ossl_provider_set_child(ptr noundef nonnull %18, ptr noundef %0) #2
  %.not29 = icmp eq i32 %24, 0
  br i1 %.not29, label %27, label %25

25:                                               ; preds = %23
  %26 = tail call i32 @ossl_provider_add_to_store(ptr noundef nonnull %18, ptr noundef null, i32 noundef 0) #2
  %.not30 = icmp eq i32 %26, 0
  br i1 %.not30, label %27, label %29

27:                                               ; preds = %25, %23
  %28 = tail call i32 @ossl_provider_deactivate(ptr noundef nonnull %18, i32 noundef 0) #2
  tail call void @ossl_provider_free(ptr noundef nonnull %18) #2
  br label %30

29:                                               ; preds = %25, %15
  br label %30

30:                                               ; preds = %17, %15, %29, %27, %22
  %.0 = phi i32 [ 1, %29 ], [ 0, %15 ], [ 0, %17 ], [ 0, %27 ], [ 0, %22 ]
  %31 = load ptr, ptr %6, align 8, !tbaa !3
  %32 = tail call i32 @CRYPTO_THREAD_unlock(ptr noundef %31) #2
  br label %33

33:                                               ; preds = %5, %2, %30
  %.023 = phi i32 [ %.0, %30 ], [ 0, %2 ], [ 0, %5 ]
  ret i32 %.023
}